target datalayout = "e-m:e-p270:32:32-p271:32:32-p272:64:64-i64:64-i128:128-f80:128-n8:16:32:64-S128"
target triple = "x86_64-pc-linux-gnu"

%struct.fdt_header = type { i32, i32, i32, i32, i32, i32, i32, i32, i32, i32 }

; Function Attrs: inlinehint nounwind uwtable
define internal zeroext i1 @can_assume_(i32 noundef %0) #2 {
  %2 = alloca i32, align 4
  store i32 %0, ptr %2, align 4
  %3 = load i32, ptr %2, align 4
  %4 = and i32 0, %3
  %5 = icmp ne i32 %4, 0
  ret i1 %5
}

; Function Attrs: inlinehint nounwind uwtable
define internal i32 @fdt32_ld(ptr noundef %0) #2 {
  %2 = alloca ptr, align 8
  %3 = alloca ptr, align 8
  store ptr %0, ptr %2, align 8
  call void @llvm.lifetime.start.p0(i64 8, ptr %3) #5
  %4 = load ptr, ptr %2, align 8
  store ptr %4, ptr %3, align 8
  %5 = load ptr, ptr %3, align 8
  %6 = getelementptr inbounds i8, ptr %5, i64 0
  %7 = load i8, ptr %6, align 1
  %8 = zext i8 %7 to i32
  %9 = shl i32 %8, 24
  %10 = load ptr, ptr %3, align 8
  %11 = getelementptr inbounds i8, ptr %10, i64 1
  %12 = load i8, ptr %11, align 1
  %13 = zext i8 %12 to i32
  %14 = shl i32 %13, 16
  %15 = or i32 %9, %14
  %16 = load ptr, ptr %3, align 8
  %17 = getelementptr inbounds i8, ptr %16, i64 2
  %18 = load i8, ptr %17, align 1
  %19 = zext i8 %18 to i32
  %20 = shl i32 %19, 8
  %21 = or i32 %15, %20
  %22 = load ptr, ptr %3, align 8
  %23 = getelementptr inbounds i8, ptr %22, i64 3
  %24 = load i8, ptr %23, align 1
  %25 = zext i8 %24 to i32
  %26 = or i32 %21, %25
  call void @llvm.lifetime.end.p0(i64 8, ptr %3) #5
  ret i32 %26
}

; Function Attrs: nounwind uwtable
define dso_local i32 @fdt_ro_probe_(ptr noundef %0) #0 {
  %2 = alloca i32, align 4
  %3 = alloca ptr, align 8
  %4 = alloca i32, align 4
  %5 = alloca i32, align 4
  store ptr %0, ptr %3, align 8
  call void @llvm.lifetime.start.p0(i64 4, ptr %4) #5
  %6 = load ptr, ptr %3, align 8
  %7 = getelementptr inbounds nuw %struct.fdt_header, ptr %6, i32 0, i32 1
  %8 = call i32 @fdt32_ld(ptr noundef %7)
  store i32 %8, ptr %4, align 4
  %9 = call zeroext i1 @can_assume_(i32 noundef 1)
  br i1 %9, label %10, label %12

10:                                               ; preds = %1
  %11 = load i32, ptr %4, align 4
  store i32 %11, ptr %2, align 4
  store i32 1, ptr %5, align 4
  br label %61

12:                                               ; preds = %1
  %13 = load ptr, ptr %3, align 8
  %14 = ptrtoint ptr %13 to i64
  %15 = and i64 %14, 7
  %16 = icmp ne i64 %15, 0
  br i1 %16, label %17, label %18

17:                                               ; preds = %12
  store i32 -19, ptr %2, align 4
  store i32 1, ptr %5, align 4
  br label %61

18:                                               ; preds = %12
  %19 = load ptr, ptr %3, align 8
  %20 = getelementptr inbounds nuw %struct.fdt_header, ptr %19, i32 0, i32 0
  %21 = call i32 @fdt32_ld(ptr noundef %20)
  %22 = icmp eq i32 %21, -804389139
  br i1 %22, label %23, label %39

23:                                               ; preds = %18
  %24 = call zeroext i1 @can_assume_(i32 noundef 4)
  br i1 %24, label %38, label %25

25:                                               ; preds = %23
  %26 = load ptr, ptr %3, align 8
  %27 = getelementptr inbounds nuw %struct.fdt_header, ptr %26, i32 0, i32 5
  %28 = call i32 @fdt32_ld(ptr noundef %27)
  %29 = icmp ult i32 %28, 2
  br i1 %29, label %30, label %31

30:                                               ; preds = %25
  store i32 -10, ptr %2, align 4
  store i32 1, ptr %5, align 4
  br label %61

31:                                               ; preds = %25
  %32 = load ptr, ptr %3, align 8
  %33 = getelementptr inbounds nuw %struct.fdt_header, ptr %32, i32 0, i32 6
  %34 = call i32 @fdt32_ld(ptr noundef %33)
  %35 = icmp ugt i32 %34, 17
  br i1 %35, label %36, label %37

36:                                               ; preds = %31
  store i32 -10, ptr %2, align 4
  store i32 1, ptr %5, align 4
  br label %61

37:                                               ; preds = %31
  br label %38

38:                                               ; preds = %37, %23
  br label %55

39:                                               ; preds = %18
  %40 = load ptr, ptr %3, align 8
  %41 = getelementptr inbounds nuw %struct.fdt_header, ptr %40, i32 0, i32 0
  %42 = call i32 @fdt32_ld(ptr noundef %41)
  %43 = icmp eq i32 %42, 804389138
  br i1 %43, label %44, label %53

44:                                               ; preds = %39
  %45 = call zeroext i1 @can_assume_(i32 noundef 2)
  br i1 %45, label %52, label %46

46:                                               ; preds = %44
  %47 = load ptr, ptr %3, align 8
  %48 = getelementptr inbounds nuw %struct.fdt_header, ptr %47, i32 0, i32 9
  %49 = call i32 @fdt32_ld(ptr noundef %48)
  %50 = icmp eq i32 %49, 0
  br i1 %50, label %51, label %52

51:                                               ; preds = %46
  store i32 -7, ptr %2, align 4
  store i32 1, ptr %5, align 4
  br label %61

52:                                               ; preds = %46, %44
  br label %54

53:                                               ; preds = %39
  store i32 -9, ptr %2, align 4
  store i32 1, ptr %5, align 4
  br label %61

54:                                               ; preds = %52
  br label %55

55:                                               ; preds = %54, %38
  %56 = load i32, ptr %4, align 4
  %57 = icmp ult i32 %56, 2147483647
  br i1 %57, label %58, label %60

58:                                               ; preds = %55
  %59 = load i32, ptr %4, align 4
  store i32 %59, ptr %2, align 4
  store i32 1, ptr %5, align 4
  br label %61

60:                                               ; preds = %55
  store i32 -8, ptr %2, align 4
  store i32 1, ptr %5, align 4
  br label %61

61:                                               ; preds = %60, %58, %53, %51, %36, %30, %17, %10
  call void @llvm.lifetime.end.p0(i64 4, ptr %4) #5
  %62 = load i32, ptr %2, align 4
  ret i32 %62
}