; Function Attrs: mustprogress nofree norecurse nosync nounwind willreturn memory(argmem: read) uwtable
define dso_local range(i32 -19, 2147483647) i32 @fdt_ro_probe_(ptr noundef %0) local_unnamed_addr #0 {
  %2 = getelementptr inbounds nuw i8, ptr %0, i64 4
  %3 = load i8, ptr %2, align 1
  %4 = zext i8 %3 to i32
  %5 = shl nuw i32 %4, 24
  %6 = getelementptr inbounds nuw i8, ptr %0, i64 5
  %7 = load i8, ptr %6, align 1
  %8 = zext i8 %7 to i32
  %9 = shl nuw nsw i32 %8, 16
  %10 = or disjoint i32 %9, %5
  %11 = getelementptr inbounds nuw i8, ptr %0, i64 6
  %12 = load i8, ptr %11, align 1
  %13 = zext i8 %12 to i32
  %14 = shl nuw nsw i32 %13, 8
  %15 = or disjoint i32 %10, %14
  %16 = getelementptr inbounds nuw i8, ptr %0, i64 7
  %17 = load i8, ptr %16, align 1
  %18 = zext i8 %17 to i32
  %19 = or disjoint i32 %15, %18
  %20 = ptrtoint ptr %0 to i64
  %21 = and i64 %20, 7
  %.not = icmp eq i64 %21, 0
  br i1 %.not, label %22, label %102

22:                                               ; preds = %1
  %23 = load i8, ptr %0, align 1
  %24 = zext i8 %23 to i32
  %25 = shl nuw i32 %24, 24
  %26 = getelementptr inbounds nuw i8, ptr %0, i64 1
  %27 = load i8, ptr %26, align 1
  %28 = zext i8 %27 to i32
  %29 = shl nuw nsw i32 %28, 16
  %30 = or disjoint i32 %29, %25
  %31 = getelementptr inbounds nuw i8, ptr %0, i64 2
  %32 = load i8, ptr %31, align 1
  %33 = zext i8 %32 to i32
  %34 = shl nuw nsw i32 %33, 8
  %35 = or disjoint i32 %30, %34
  %36 = getelementptr inbounds nuw i8, ptr %0, i64 3
  %37 = load i8, ptr %36, align 1
  %38 = zext i8 %37 to i32
  %39 = or disjoint i32 %35, %38
  switch i32 %39, label %102 [
    i32 -804389139, label %40
    i32 804389138, label %80
  ]

40:                                               ; preds = %22
  %41 = getelementptr inbounds nuw i8, ptr %0, i64 20
  %42 = load i8, ptr %41, align 1
  %43 = zext i8 %42 to i32
  %44 = shl nuw i32 %43, 24
  %45 = getelementptr inbounds nuw i8, ptr %0, i64 21
  %46 = load i8, ptr %45, align 1
  %47 = zext i8 %46 to i32
  %48 = shl nuw nsw i32 %47, 16
  %49 = or disjoint i32 %48, %44
  %50 = getelementptr inbounds nuw i8, ptr %0, i64 22
  %51 = load i8, ptr %50, align 1
  %52 = zext i8 %51 to i32
  %53 = shl nuw nsw i32 %52, 8
  %54 = or disjoint i32 %49, %53
  %55 = getelementptr inbounds nuw i8, ptr %0, i64 23
  %56 = load i8, ptr %55, align 1
  %57 = zext i8 %56 to i32
  %58 = or disjoint i32 %54, %57
  %59 = icmp ult i32 %58, 2
  br i1 %59, label %102, label %60

60:                                               ; preds = %40
  %61 = getelementptr inbounds nuw i8, ptr %0, i64 24
  %62 = load i8, ptr %61, align 1
  %63 = zext i8 %62 to i32
  %64 = shl nuw i32 %63, 24
  %65 = getelementptr inbounds nuw i8, ptr %0, i64 25
  %66 = load i8, ptr %65, align 1
  %67 = zext i8 %66 to i32
  %68 = shl nuw nsw i32 %67, 16
  %69 = or disjoint i32 %68, %64
  %70 = getelementptr inbounds nuw i8, ptr %0, i64 26
  %71 = load i8, ptr %70, align 1
  %72 = zext i8 %71 to i32
  %73 = shl nuw nsw i32 %72, 8
  %74 = or disjoint i32 %69, %73
  %75 = getelementptr inbounds nuw i8, ptr %0, i64 27
  %76 = load i8, ptr %75, align 1
  %77 = zext i8 %76 to i32
  %78 = or disjoint i32 %74, %77
  %79 = icmp ugt i32 %78, 17
  br i1 %79, label %102, label %100

80:                                               ; preds = %22
  %81 = getelementptr inbounds nuw i8, ptr %0, i64 36
  %82 = load i8, ptr %81, align 1
  %83 = zext i8 %82 to i32
  %84 = shl nuw i32 %83, 24
  %85 = getelementptr inbounds nuw i8, ptr %0, i64 37
  %86 = load i8, ptr %85, align 1
  %87 = zext i8 %86 to i32
  %88 = shl nuw nsw i32 %87, 16
  %89 = or disjoint i32 %88, %84
  %90 = getelementptr inbounds nuw i8, ptr %0, i64 38
  %91 = load i8, ptr %90, align 1
  %92 = zext i8 %91 to i32
  %93 = shl nuw nsw i32 %92, 8
  %94 = or disjoint i32 %89, %93
  %95 = getelementptr inbounds nuw i8, ptr %0, i64 39
  %96 = load i8, ptr %95, align 1
  %97 = zext i8 %96 to i32
  %98 = or disjoint i32 %94, %97
  %99 = icmp eq i32 %98, 0
  br i1 %99, label %102, label %100

100:                                              ; preds = %80, %60
  %101 = icmp ult i32 %19, 2147483647
  %. = select i1 %101, i32 %19, i32 -8
  br label %102

102:                                              ; preds = %22, %100, %80, %60, %40, %1
  %.0 = phi i32 [ -19, %1 ], [ -10, %40 ], [ -10, %60 ], [ -7, %80 ], [ %., %100 ], [ -9, %22 ]
  ret i32 %.0
}